(dp0
VServer
p1
Vcmsweb.cern.ch
p2
sVPort
p3
V
p4
sVRequestName
p5
V251211_082407:junghyun_crab_ttbar_SemiLeptonic_v1_TTbar_SemiLep
p6
sVvoRole
p7
VNULL
p8
sVvoGroup
p9
g4
sVinstance
p10
Vprod
p11
sVOriginalConfig
p12
ccopy_reg
_reconstructor
p13
(cWMCore.Configuration
Configuration
p14
c__builtin__
object
p15
Ntp16
Rp17
(dp18
V_internal_sections
p19
(lp20
VGeneral
p21
aVJobType
p22
aVData
p23
aVSite
p24
aVUser
p25
aVDebug
p26
asg21
g13
(cWMCore.Configuration
ConfigSection
p27
g15
Ntp28
Rp29
(dp30
V_internal_documentation
p31
g4
sV_internal_name
p32
g21
sV_internal_settings
p33
c__builtin__
set
p34
((lp35
VtransferLogs
p36
aVworkArea
p37
aVrequestName
p38
aVtransferOutputs
p39
atp40
Rp41
sV_internal_docstrings
p42
(dp43
sV_internal_children
p44
g34
((lp45
tp46
Rp47
sV_internal_parent_ref
p48
NsV_internal_skipChecks
p49
I00
sg39
I01
sg36
I01
sg37
Vttbar_SemiLeptonic_v1
p50
sg38
Vttbar_SemiLeptonic_v1_TTbar_SemiLep
p51
sbsg22
g13
(g27
g15
Ntp52
Rp53
(dp54
g31
g4
sg32
g22
sg33
g34
((lp55
VscriptExe
p56
aVpsetName
p57
aVmaxJobRuntimeMin
p58
aVpluginName
p59
aVscriptArgs
p60
aVinputFiles
p61
aVmaxMemoryMB
p62
atp63
Rp64
sg42
(dp65
sg44
g34
((lp66
tp67
Rp68
sg48
Nsg49
I00
sg59
VAnalysis
p69
sg57
Vcrab/PSet.py
p70
sg56
Vcrab/crab_script.py
p71
sg62
I2500
sg58
I600
sg61
(lp72
Vscripts/run_postproc.py
p73
aVmodules
p74
aVbranches
p75
aVcrab_args.txt
p76
asg60
(lp77
sbsg23
g13
(g27
g15
Ntp78
Rp79
(dp80
g31
g4
sg32
g23
sg33
g34
((lp81
VinputDBS
p82
aVinputDataset
p83
aVpublication
p84
aVoutLFNDirBase
p85
aVunitsPerJob
p86
aVsplitting
p87
aVoutputDatasetTag
p88
atp89
Rp90
sg42
(dp91
sg44
g34
((lp92
tp93
Rp94
sg48
Nsg49
I00
sg82
Vglobal
p95
sg87
VEventAwareLumiBased
p96
sg86
I50000
sg84
I00
sg85
V/store/user/junghyun/
p97
sg83
V/TTToSemiLeptonic_TuneCP5_13TeV-powheg-pythia8/RunIISummer20UL17NanoAODv9-106X_mc2017_realistic_v9-v1/NANOAODSIM
p98
sg88
VTTbar_SemiLep
p99
sbsg24
g13
(g27
g15
Ntp100
Rp101
(dp102
g31
g4
sg32
g24
sg33
g34
((lp103
VstorageSite
p104
atp105
Rp106
sg42
(dp107
sg44
g34
((lp108
tp109
Rp110
sg48
Nsg49
I00
sg104
VT3_KR_KNU
p111
sbsg25
g13
(g27
g15
Ntp112
Rp113
(dp114
g31
g4
sg32
g25
sg33
g34
((lp115
tp116
Rp117
sg42
(dp118
sg44
g34
((lp119
tp120
Rp121
sg48
Nsg49
I00
sbsg26
g13
(g27
g15
Ntp122
Rp123
(dp124
g31
g4
sg32
g26
sg33
g34
((lp125
tp126
Rp127
sg42
(dp128
sg44
g34
((lp129
tp130
Rp131
sg48
Nsg49
I00
sbsbs.