ccopy_reg
_reconstructor
p0
(cFWCore.ParameterSet.Config
Process
p1
c__builtin__
object
p2
Ntp3
Rp4
(dp5
V_Process__name
p6
VNANO
p7
sV_Process__filters
p8
(dp9
sV_Process__producers
p10
(dp11
sV_Process__switchproducers
p12
(dp13
sV_Process__source
p14
g0
(cFWCore.ParameterSet.Modules
Source
p15
g2
Ntp16
Rp17
(dp18
V_TypedParameterizable__type
p19
VPoolSource
p20
sV_Parameterizable__parameterNames
p21
(lp22
VfileNames
p23
asV_isFrozen
p24
I00
sV_Parameterizable__validator
p25
Nsg23
g0
(cFWCore.ParameterSet.Types
vstring
p26
c__builtin__
list
p27
(lp28
tp29
Rp30
(dp31
g24
I00
sV_ParameterTypeBase__isTracked
p32
I00
sV_isModified
p33
I00
sV_nPerLine
p34
I1
sbsg33
I00
sV_filename
p35
V/cvmfs/cms.cern.ch/el8_amd64_gcc12/cms/cmssw/CMSSW_14_2_1/src/FWCore/ParameterSet/python/Modules.py
p36
sV_lineNumber
p37
I195
sbsV_Process__looper
p38
NsV_Process__subProcesses
p39
(lp40
sV_Process__schedule
p41
NsV_Process__analyzers
p42
(dp43
sV_Process__outputmodules
p44
(dp45
Voutput
p46
g0
(cFWCore.ParameterSet.Modules
OutputModule
p47
g2
Ntp48
Rp49
(dp50
g19
VPoolOutputModule
p51
sg21
(lp52
VfileName
p53
asg24
I00
sg25
Nsg53
g0
(cFWCore.ParameterSet.Types
string
p54
g2
Ntp55
Rp56
(dp57
g24
I00
sg32
I00
sg33
I00
sV_value
p58
Vtree.root
p59
sbsg33
I00
sg35
V/afs/cern.ch/user/j/junghyun/CMSSW_14_2_1/src/NtupleForge/crab/PSet.py
p60
sg37
I5
sV_Labelable__label
p61
g46
sbssV_Process__paths
p62
g0
(cFWCore.ParameterSet.DictTypes
SortedKeysDict
p63
c__builtin__
dict
p64
(dp65
tp66
Rp67
(dp68
Vlist
p69
(lp70
sbsV_Process__endpaths
p71
g0
(g63
g64
(dp72
Vout
p73
g0
(cFWCore.ParameterSet.SequenceTypes
EndPath
p74
g2
Ntp75
Rp76
(dp77
g24
I00
sV_seq
p78
g0
(cFWCore.ParameterSet.SequenceTypes
_SequenceCollection
p79
g2
Ntp80
Rp81
(dp82
V_collection
p83
(lp84
g49
asbsg33
I00
sV_tasks
p85
g0
(cFWCore.ParameterSet.OrderedSet
OrderedSet
p86
g2
Ntp87
Rp88
(dp89
Vend
p90
(lp91
Nag91
ag91
asVmap
p92
(dp93
sbsg61
g73
sbstp94
Rp95
(dp96
g69
(lp97
g73
asbsV_Process__finalpaths
p98
g0
(g63
g64
(dp99
tp100
Rp101
(dp102
g69
(lp103
sbsV_Process__sequences
p104
(dp105
sV_Process__tasks
p106
(dp107
sV_Process__conditionaltasks
p108
(dp109
sV_Process__services
p110
(dp111
VMessageLogger
p112
g0
(cFWCore.ParameterSet.Modules
Service
p113
g2
Ntp114
Rp115
(dp116
g19
g112
sg21
(lp117
VsuppressWarning
p118
aVsuppressFwkInfo
p119
aVsuppressInfo
p120
aVsuppressDebug
p121
aVdebugModules
p122
aVcout
p123
aVdefault
p124
aVcerr
p125
aVfiles
p126
asg24
I00
sg25
g0
(cFWCore.ParameterSet.Types
_OptionalParameter
p127
g2
Ntp128
Rp129
(dp130
g24
I00
sg32
I00
sg33
I00
sV_ProxyParameter__type
p131
g0
(cFWCore.ParameterSet.Types
_PSetTemplate
p132
g2
Ntp133
Rp134
(dp135
V_pset
p136
g0
(cFWCore.ParameterSet.Types
PSet
p137
g2
Ntp138
Rp139
(dp140
g24
I00
sg32
I01
sg33
I00
sg21
(lp141
VreportEvery
p142
aVlimit
p143
aVtimespan
p144
asg25
Nsg142
g0
(cFWCore.ParameterSet.Types
int32
p145
g2
Ntp146
Rp147
(dp148
g24
I00
sg32
I00
sg33
I00
sg58
I1
sbsg143
g0
(g127
g2
Ntp149
Rp150
(dp151
g24
I00
sg32
I00
sg33
I00
sg131
g145
sV_ProxyParameter__value
p152
Nsbsg144
g0
(g127
g2
Ntp153
Rp154
(dp155
g24
I00
sg32
I00
sg33
I00
sg131
g145
sg152
Nsbsbsbsg152
Nsbsg118
g0
(g26
g27
(lp156
tp157
Rp158
(dp159
g24
I00
sg32
I00
sg33
I00
sg34
I1
sbsg33
I00
sg119
g0
(g26
g27
(lp160
tp161
Rp162
(dp163
g24
I00
sg32
I00
sg33
I00
sg34
I1
sbsg120
g0
(g26
g27
(lp164
tp165
Rp166
(dp167
g24
I00
sg32
I00
sg33
I00
sg34
I1
sbsg121
g0
(g26
g27
(lp168
tp169
Rp170
(dp171
g24
I00
sg32
I00
sg33
I00
sg34
I1
sbsg122
g0
(g26
g27
(lp172
tp173
Rp174
(dp175
g24
I00
sg32
I00
sg33
I00
sg34
I1
sbsg123
g0
(g137
g2
Ntp176
Rp177
(dp178
g24
I00
sg32
I00
sg33
I00
sg21
(lp179
VnoLineBreaks
p180
aVnoTimeStamps
p181
aVlineLength
p182
aVthreshold
p183
aVstatisticsThreshold
p184
aVenableStatistics
p185
aVresetStatistics
p186
aVenable
p187
asg25
g129
sg180
g0
(g127
g2
Ntp188
Rp189
(dp190
g24
I00
sg32
I00
sg33
I00
sg131
cFWCore.ParameterSet.Types
bool
p191
sg152
Nsbsg181
g0
(g127
g2
Ntp192
Rp193
(dp194
g24
I00
sg32
I00
sg33
I00
sg131
g191
sg152
Nsbsg182
g0
(g127
g2
Ntp195
Rp196
(dp197
g24
I00
sg32
I00
sg33
I00
sg131
g145
sg152
Nsbsg183
g0
(g127
g2
Ntp198
Rp199
(dp200
g24
I00
sg32
I00
sg33
I00
sg131
g54
sg152
Nsbsg184
g0
(g127
g2
Ntp201
Rp202
(dp203
g24
I00
sg32
I00
sg33
I00
sg131
g54
sg152
Nsbsg185
g0
(g191
g2
Ntp204
Rp205
(dp206
g24
I00
sg32
I00
sg33
I00
sg58
I00
sbsg186
g0
(g191
g2
Ntp207
Rp208
(dp209
g24
I00
sg32
I00
sg33
I00
sg58
I00
sbsg187
g0
(g191
g2
Ntp210
Rp211
(dp212
g24
I00
sg32
I00
sg33
I00
sg58
I00
sbsbsg124
g0
(g137
g2
Ntp213
Rp214
(dp215
g24
I00
sg32
I00
sg33
I00
sg21
(lp216
g142
ag143
ag144
ag180
ag181
ag182
ag183
ag184
asg25
g129
sg142
g0
(g145
g2
Ntp217
Rp218
(dp219
g24
I00
sg32
I00
sg33
I00
sg58
I1
sbsg143
g0
(g127
g2
Ntp220
Rp221
(dp222
g24
I00
sg32
I00
sg33
I00
sg131
g145
sg152
Nsbsg144
g0
(g127
g2
Ntp223
Rp224
(dp225
g24
I00
sg32
I00
sg33
I00
sg131
g145
sg152
Nsbsg180
g0
(g191
g2
Ntp226
Rp227
(dp228
g24
I00
sg32
I00
sg33
I00
sg58
I00
sbsg181
g0
(g191
g2
Ntp229
Rp230
(dp231
g24
I00
sg32
I00
sg33
I00
sg58
I00
sbsg182
g0
(g145
g2
Ntp232
Rp233
(dp234
g24
I00
sg32
I00
sg33
I00
sg58
I80
sbsg183
g0
(g54
g2
Ntp235
Rp236
(dp237
g24
I00
sg32
I00
sg33
I00
sg58
VINFO
p238
sbsg184
g0
(g54
g2
Ntp239
Rp240
(dp241
g24
I00
sg32
I00
sg33
I00
sg58
g238
sbsbsg125
g0
(g137
g2
Ntp242
Rp243
(dp244
g24
I00
sg32
I00
sg33
I00
sg21
(lp245
g180
ag181
ag182
ag183
ag184
ag187
ag185
ag186
ag238
aVFwkReport
p246
ag124
aVRoot_NoDictionary
p247
aVFwkSummary
p248
asg25
g129
sg180
g0
(g127
g2
Ntp249
Rp250
(dp251
g24
I00
sg32
I00
sg33
I00
sg131
g191
sg152
Nsbsg181
g0
(g191
g2
Ntp252
Rp253
(dp254
g24
I00
sg32
I00
sg33
I00
sg58
I00
sbsg182
g0
(g127
g2
Ntp255
Rp256
(dp257
g24
I00
sg32
I00
sg33
I00
sg131
g145
sg152
Nsbsg183
g0
(g54
g2
Ntp258
Rp259
(dp260
g24
I00
sg32
I00
sg33
I00
sg58
g238
sbsg184
g0
(g54
g2
Ntp261
Rp262
(dp263
g24
I00
sg32
I00
sg33
I00
sg58
VWARNING
p264
sbsg187
g0
(g191
g2
Ntp265
Rp266
(dp267
g24
I00
sg32
I00
sg33
I00
sg58
I01
sbsg185
g0
(g191
g2
Ntp268
Rp269
(dp270
g24
I00
sg32
I00
sg33
I00
sg58
I00
sbsg186
g0
(g191
g2
Ntp271
Rp272
(dp273
g24
I00
sg32
I00
sg33
I00
sg58
I00
sbsg238
g0
(g137
g2
Ntp274
Rp275
(dp276
g24
I00
sg32
I00
sg33
I00
sg21
(lp277
g143
asg25
Nsg143
g0
(g145
g2
Ntp278
Rp279
(dp280
g24
I00
sg32
I00
sg33
I00
sg58
I0
sbsbsg246
g0
(g137
g2
Ntp281
Rp282
(dp283
g24
I00
sg32
I00
sg33
I00
sg21
(lp284
g142
ag143
asg25
Nsg142
g0
(g145
g2
Ntp285
Rp286
(dp287
g24
I00
sg32
I00
sg33
I00
sg58
I1
sbsg143
g0
(g145
g2
Ntp288
Rp289
(dp290
g24
I00
sg32
I00
sg33
I00
sg58
I10000000
sbsbsg124
g0
(g137
g2
Ntp291
Rp292
(dp293
g24
I00
sg32
I00
sg33
I00
sg21
(lp294
g143
asg25
Nsg143
g0
(g145
g2
Ntp295
Rp296
(dp297
g24
I00
sg32
I00
sg33
I00
sg58
I10000000
sbsbsg247
g0
(g137
g2
Ntp298
Rp299
(dp300
g24
I00
sg32
I00
sg33
I00
sg21
(lp301
g143
asg25
Nsg143
g0
(g145
g2
Ntp302
Rp303
(dp304
g24
I00
sg32
I00
sg33
I00
sg58
I0
sbsbsg248
g0
(g137
g2
Ntp305
Rp306
(dp307
g24
I00
sg32
I00
sg33
I00
sg21
(lp308
g142
ag143
asg25
Nsg142
g0
(g145
g2
Ntp309
Rp310
(dp311
g24
I00
sg32
I00
sg33
I00
sg58
I1
sbsg143
g0
(g145
g2
Ntp312
Rp313
(dp314
g24
I00
sg32
I00
sg33
I00
sg58
I10000000
sbsbsbsg126
g0
(g137
g2
Ntp315
Rp316
(dp317
g24
I00
sg32
I00
sg33
I00
sg21
(lp318
sg25
g0
(g127
g2
Ntp319
Rp320
(dp321
g24
I00
sg32
I00
sg33
I00
sg131
g0
(g132
g2
Ntp322
Rp323
(dp324
g136
g0
(g137
g2
Ntp325
Rp326
(dp327
g24
I00
sg32
I01
sg33
I00
sg21
(lp328
g180
ag181
ag182
ag183
ag184
ag185
ag186
aVfilename
p329
aVextension
p330
ag46
asg25
g129
sg180
g0
(g127
g2
Ntp331
Rp332
(dp333
g24
I00
sg32
I00
sg33
I00
sg131
g191
sg152
Nsbsg181
g0
(g127
g2
Ntp334
Rp335
(dp336
g24
I00
sg32
I00
sg33
I00
sg131
g191
sg152
Nsbsg182
g0
(g127
g2
Ntp337
Rp338
(dp339
g24
I00
sg32
I00
sg33
I00
sg131
g145
sg152
Nsbsg183
g0
(g127
g2
Ntp340
Rp341
(dp342
g24
I00
sg32
I00
sg33
I00
sg131
g54
sg152
Nsbsg184
g0
(g127
g2
Ntp343
Rp344
(dp345
g24
I00
sg32
I00
sg33
I00
sg131
g54
sg152
Nsbsg185
g0
(g191
g2
Ntp346
Rp347
(dp348
g24
I00
sg32
I00
sg33
I00
sg58
I00
sbsg186
g0
(g191
g2
Ntp349
Rp350
(dp351
g24
I00
sg32
I00
sg33
I00
sg58
I00
sbsg329
g0
(g127
g2
Ntp352
Rp353
(dp354
g24
I00
sg32
I00
sg33
I00
sg131
g54
sg152
Nsbsg330
g0
(g127
g2
Ntp355
Rp356
(dp357
g24
I00
sg32
I00
sg33
I00
sg131
g54
sg152
Nsbsg46
g0
(g127
g2
Ntp358
Rp359
(dp360
g24
I00
sg32
I00
sg33
I00
sg131
g54
sg152
Nsbsbsbsg152
Nsbsbsg35
g36
sg37
I13
sV_inProcess
p361
I01
sbssV_Process__essources
p362
(dp363
sV_Process__esproducers
p364
(dp365
sV_Process__esprefers
p366
(dp367
sV_Process__aliases
p368
(dp369
sV_Process__psets
p370
(dp371
Voptions
p372
g0
(g137
g2
Ntp373
Rp374
(dp375
g24
I00
sg32
I00
sg33
I00
sg21
(lp376
VnumberOfThreads
p377
aVnumberOfStreams
p378
aVnumberOfConcurrentRuns
p379
aVnumberOfConcurrentLuminosityBlocks
p380
aVeventSetup
p381
aVaccelerators
p382
aVwantSummary
p383
aVfileMode
p384
aVforceEventSetupCacheClearOnNewRun
p385
aVthrowIfIllegalParameter
p386
aVprintDependencies
p387
aVdeleteNonConsumedUnscheduledModules
p388
aVsizeOfStackForThreadsInKB
p389
aVRethrow
p390
aVTryToContinue
p391
aVIgnoreCompletely
p392
aVmodulesToCallForTryToContinue
p393
aVcanDeleteEarly
p394
aVholdsReferencesToDeleteEarly
p395
aVmodulesToIgnoreForDeleteEarly
p396
aVdumpOptions
p397
aVallowUnscheduled
p398
aVemptyRunLumiMode
p399
aVmakeTriggerResults
p400
asg25
Nsg377
g0
(cFWCore.ParameterSet.Types
uint32
p401
g2
Ntp402
Rp403
(dp404
g24
I00
sg32
I00
sg33
I00
sg58
I1
sbsg378
g0
(g401
g2
Ntp405
Rp406
(dp407
g24
I00
sg32
I00
sg33
I00
sg58
I0
sbsg379
g0
(g401
g2
Ntp408
Rp409
(dp410
g24
I00
sg32
I00
sg33
I00
sg58
I1
sbsg380
g0
(g401
g2
Ntp411
Rp412
(dp413
g24
I00
sg32
I00
sg33
I00
sg58
I0
sbsg381
g0
(g137
g2
Ntp414
Rp415
(dp416
g24
I00
sg32
I00
sg33
I00
sg21
(lp417
VnumberOfConcurrentIOVs
p418
aVforceNumberOfConcurrentIOVs
p419
asg25
Nsg418
g0
(g401
g2
Ntp420
Rp421
(dp422
g24
I00
sg32
I00
sg33
I00
sg58
I0
sbsg419
g0
(g137
g2
Ntp423
Rp424
(dp425
g24
I00
sg32
I00
sg33
I00
sg21
(lp426
sg25
g0
(cFWCore.ParameterSet.Types
_RequiredParameter
p427
g2
Ntp428
Rp429
(dp430
g24
I00
sg32
I00
sg33
I00
sg131
g401
sg152
Nsbsbsbsg382
g0
(g26
g27
(lp431
V*
p432
atp433
Rp434
(dp435
g24
I00
sg32
I00
sg33
I00
sg34
I1
sbsg383
g0
(g191
g2
Ntp436
Rp437
(dp438
g24
I00
sg32
I00
sg33
I00
sg58
I00
sbsg384
g0
(g54
g2
Ntp439
Rp440
(dp441
g24
I00
sg32
I00
sg33
I00
sg58
VFULLMERGE
p442
sbsg385
g0
(g191
g2
Ntp443
Rp444
(dp445
g24
I00
sg32
I00
sg33
I00
sg58
I00
sbsg386
g0
(g191
g2
Ntp446
Rp447
(dp448
g24
I00
sg32
I00
sg33
I00
sg58
I01
sbsg387
g0
(g191
g2
Ntp449
Rp450
(dp451
g24
I00
sg32
I00
sg33
I00
sg58
I00
sbsg388
g0
(g191
g2
Ntp452
Rp453
(dp454
g24
I00
sg32
I00
sg33
I00
sg58
I01
sbsg389
g0
(g127
g2
Ntp455
Rp456
(dp457
g24
I00
sg32
I00
sg33
I00
sg131
g401
sg152
Nsbsg390
g0
(g26
g27
(lp458
tp459
Rp460
(dp461
g24
I00
sg32
I00
sg33
I00
sg34
I1
sbsg391
g0
(g26
g27
(lp462
tp463
Rp464
(dp465
g24
I00
sg32
I00
sg33
I00
sg34
I1
sbsg392
g0
(g26
g27
(lp466
tp467
Rp468
(dp469
g24
I00
sg32
I00
sg33
I00
sg34
I1
sbsg393
g0
(g26
g27
(lp470
tp471
Rp472
(dp473
g24
I00
sg32
I00
sg33
I00
sg34
I1
sbsg394
g0
(g26
g27
(lp474
tp475
Rp476
(dp477
g24
I00
sg32
I00
sg33
I00
sg34
I1
sbsg395
g0
(cFWCore.ParameterSet.Types
VPSet
p478
g27
(lp479
tp480
Rp481
(dp482
g24
I00
sg32
I00
sg33
I00
sg34
I1
sbsg396
g0
(g26
g27
(lp483
tp484
Rp485
(dp486
g24
I00
sg32
I00
sg33
I00
sg34
I1
sbsg397
g0
(g191
g2
Ntp487
Rp488
(dp489
g24
I00
sg32
I00
sg33
I00
sg58
I00
sbsg398
g0
(cFWCore.ParameterSet.Types
_ObsoleteParameter
p490
g2
Ntp491
Rp492
(dp493
g24
I00
sg32
I00
sg33
I00
sg131
g191
sg152
Nsbsg399
g0
(g490
g2
Ntp494
Rp495
(dp496
g24
I00
sg32
I00
sg33
I00
sg131
g54
sg152
Nsbsg400
g0
(g490
g2
Ntp497
Rp498
(dp499
g24
I00
sg32
I00
sg33
I00
sg131
g191
sg152
Nsbsg61
g372
sbsVmaxLuminosityBlocks
p500
g0
(g137
g2
Ntp501
Rp502
(dp503
g24
I00
sg32
I00
sg33
I00
sg21
(lp504
Vinput
p505
asg25
Nsg505
g0
(g145
g2
Ntp506
Rp507
(dp508
g24
I00
sg32
I00
sg33
I00
sg58
I-1
sbsg61
g500
sbsVmaxEvents
p509
g0
(g137
g2
Ntp510
Rp511
(dp512
g24
I00
sg32
I00
sg33
I01
sg21
(lp513
g505
ag46
asg25
Nsg505
g0
(g127
g2
Ntp514
Rp515
(dp516
g24
I00
sg32
I00
sg33
I00
sg131
g145
sg152
g0
(g145
g2
Ntp517
Rp518
(dp519
g24
I00
sg32
I00
sg33
I00
sg58
I10
sbsbsg46
g0
(g127
g2
Ntp520
Rp521
(dp522
g24
I00
sg32
I00
sg33
I00
sg131
g0
(cFWCore.ParameterSet.Types
_AllowedParameterTypes
p523
g2
Ntp524
Rp525
(dp526
V_AllowedParameterTypes__types
p527
(g145
g137
tp528
sV_default
p529
NsV__name__
p530
Vallowed(cms.int32,cms.PSet)
p531
sbsg152
Nsbsg61
g509
sbssV_Process__vpsets
p532
(dp533
sV_cloneToObjectDict
p534
(dp535
L140556348710976L
g374
sL140556349236032L
g0
(g137
g2
Ntp536
Rp537
(dp538
g24
I00
sg32
I00
sg33
I00
sg21
(lp539
g505
ag46
asg25
Nsg505
g0
(g127
g2
Ntp540
Rp541
(dp542
g24
I00
sg32
I00
sg33
I00
sg131
g145
sg152
Nsbsg46
g0
(g127
g2
Ntp543
Rp544
(dp545
g24
I00
sg32
I00
sg33
I00
sg131
g0
(g523
g2
Ntp546
Rp547
(dp548
g527
(g145
g137
tp549
sg529
Nsg530
Vallowed(cms.int32,cms.PSet)
p550
sbsg152
Nsbsg61
NsbsL140556349237184L
g502
sL140556349237568L
g511
sL140556348712896L
g49
sL140556349239056L
g76
ssV_Process__InExtendCall
p551
I00
sV_Process__partialschedules
p552
(dp553
sV_Process__isStrict
p554
I00
sV_Process__modifiers
p555
(tsV_Process__accelerators
p556
(dp557
sg372
g374
sg500
g502
sg112
g115
sVsource
p558
g17
sg20
g17
sg509
g511
sg46
g49
sg73
g76
sb.